; Function Attrs: nounwind uwtable
define internal fastcc noundef ptr @_readAlterForeignServerStmt() unnamed_addr #0 {
  %1 = alloca i32, align 4
  %2 = tail call noundef ptr @palloc0(i64 noundef 40) #10
  store i32 171, ptr %2, align 4
  call void @llvm.lifetime.start.p0(i64 4, ptr nonnull %1) #10
  %3 = call ptr @pg_strtok(ptr noundef nonnull %1) #10
  %4 = call ptr @pg_strtok(ptr noundef nonnull %1) #10
  %5 = load i32, ptr %1, align 4
  switch i32 %5, label %15 [
    i32 0, label %nullable_string.exit
    i32 2, label %6
  ]

6:                                                ; preds = %0
  %7 = load i8, ptr %4, align 1
  %8 = icmp eq i8 %7, 34
  br i1 %8, label %9, label %15

9:                                                ; preds = %6
  %10 = getelementptr inbounds nuw i8, ptr %4, i64 1
  %11 = load i8, ptr %10, align 1
  %12 = icmp eq i8 %11, 34
  br i1 %12, label %13, label %15

13:                                               ; preds = %9
  %14 = call ptr @pstrdup(ptr noundef nonnull @.str.326) #10
  br label %nullable_string.exit

15:                                               ; preds = %9, %6, %0
  %16 = call ptr @debackslash(ptr noundef %4, i32 noundef %5) #10
  br label %nullable_string.exit

nullable_string.exit:                             ; preds = %0, %13, %15
  %.0.i = phi ptr [ %14, %13 ], [ %16, %15 ], [ null, %0 ]
  %17 = getelementptr inbounds nuw i8, ptr %2, i64 8
  store ptr %.0.i, ptr %17, align 8
  %18 = call ptr @pg_strtok(ptr noundef nonnull %1) #10
  %19 = call ptr @pg_strtok(ptr noundef nonnull %1) #10
  %20 = load i32, ptr %1, align 4
  switch i32 %20, label %30 [
    i32 0, label %nullable_string.exit9
    i32 2, label %21
  ]

21:                                               ; preds = %nullable_string.exit
  %22 = load i8, ptr %19, align 1
  %23 = icmp eq i8 %22, 34
  br i1 %23, label %24, label %30

24:                                               ; preds = %21
  %25 = getelementptr inbounds nuw i8, ptr %19, i64 1
  %26 = load i8, ptr %25, align 1
  %27 = icmp eq i8 %26, 34
  br i1 %27, label %28, label %30

28:                                               ; preds = %24
  %29 = call ptr @pstrdup(ptr noundef nonnull @.str.326) #10
  br label %nullable_string.exit9

30:                                               ; preds = %24, %21, %nullable_string.exit
  %31 = call ptr @debackslash(ptr noundef %19, i32 noundef %20) #10
  br label %nullable_string.exit9

nullable_string.exit9:                            ; preds = %nullable_string.exit, %28, %30
  %.0.i8 = phi ptr [ %29, %28 ], [ %31, %30 ], [ null, %nullable_string.exit ]
  %32 = getelementptr inbounds nuw i8, ptr %2, i64 16
  store ptr %.0.i8, ptr %32, align 8
  %33 = call ptr @pg_strtok(ptr noundef nonnull %1) #10
  %34 = call ptr @nodeRead(ptr noundef null, i32 noundef 0) #10
  %35 = getelementptr inbounds nuw i8, ptr %2, i64 24
  store ptr %34, ptr %35, align 8
  %36 = call ptr @pg_strtok(ptr noundef nonnull %1) #10
  %37 = call ptr @pg_strtok(ptr noundef nonnull %1) #10
  %38 = load i8, ptr %37, align 1
  %39 = icmp eq i8 %38, 116
  %40 = getelementptr inbounds nuw i8, ptr %2, i64 32
  %41 = zext i1 %39 to i8
  store i8 %41, ptr %40, align 8
  call void @llvm.lifetime.end.p0(i64 4, ptr nonnull %1) #10
  ret ptr %2
}